(lp0
F0.007745981216430664
aF0.020570039749145508
aF0.03974199295043945
aF0.07206392288208008
aF0.11609315872192383
aF0.1668698787689209
aF0.2538449764251709
aF0.4727671146392822
aF0.7193858623504639
aF0.8267769813537598
aF1.106748104095459
aF1.3207728862762451
aF1.8631689548492432
aF2.4608190059661865
aF2.5572330951690674
aF3.177018165588379
aF3.9505348205566406
aF5.007158041000366
aF5.423983812332153
aF6.93588399887085
a.(lp0
F0.0
aF0.0
aF0.0
aF0.0
aF0.0
aF0.0
aF0.0
aF0.0
aF0.0
aF0.0
aF0.0
aF0.01694915254237288
aF0.0
aF0.0
aF0.0
aF0.0
aF0.011904761904761904
aF0.0
aF0.0
aF0.0
a.(lp0
I116
aI88
aI134
aI118
aI201
aI114
aI189
aI141
aI213
aI233
aI188
aI120
aI121
aI194
aI221
aI198
aI121
aI125
aI141
aI120
a.