(lp0
F0.007210969924926758
aF0.022119998931884766
aF0.037724971771240234
aF0.0683441162109375
aF0.11611700057983398
aF0.18748188018798828
aF0.3241841793060303
aF0.44997596740722656
aF0.7022459506988525
aF0.8415200710296631
aF1.0838069915771484
aF1.2624199390411377
aF1.8410139083862305
aF2.295417070388794
aF2.8855531215667725
aF3.6575119495391846
aF4.3124330043792725
aF5.387178182601929
aF6.23804497718811
aF8.582873106002808
a.(lp0
F0.0
aF0.0
aF0.0
aF0.0
aF0.0
aF0.0
aF0.0
aF0.0
aF0.0
aF0.0
aF0.0
aF0.0
aF0.0
aF0.0
aF0.0
aF0.0
aF0.0
aF0.0
aF0.010638297872340425
aF0.0
a.(lp0
I366
aI283
aI312
aI478
aI386
aI250
aI389
aI492
aI443
aI497
aI300
aI398
aI497
aI349
aI448
aI300
aI499
aI349
aI250
aI300
a.