(lp0
F0.008172035217285156
aF0.027444124221801758
aF0.05322003364562988
aF0.09037899971008301
aF0.19031906127929688
aF0.34364986419677734
aF0.5464229583740234
aF0.7675879001617432
aF0.8525359630584717
aF1.3340890407562256
aF1.860969066619873
aF2.610827922821045
aF2.84995698928833
aF4.159221172332764
aF5.576108932495117
aF6.974843978881836
aF8.907392978668213
aF12.083263158798218
aF14.852221012115479
aF16.21606421470642
a.(lp0
F0.0
aF0.0
aF0.0
aF0.0
aF0.0
aF0.0
aF0.0
aF0.0
aF0.0
aF0.0
aF0.0
aF0.0
aF0.0
aF0.0
aF0.0
aF0.0
aF0.0
aF0.0
aF0.0
aF0.0
a.(lp0
I359
aI909
aI390
aI794
aI500
aI887
aI399
aI447
aI250
aI448
aI949
aI800
aI350
aI950
aI648
aI699
aI898
aI800
aI800
aI850
a.