(lp0
F0.010877132415771484
aF0.03043198585510254
aF0.06354594230651855
aF0.12094616889953613
aF0.1974349021911621
aF0.31080102920532227
aF0.4944038391113281
aF0.7508358955383301
aF1.0628700256347656
aF1.4422199726104736
aF1.9279050827026367
aF2.5815939903259277
aF3.207077980041504
aF4.133264064788818
aF5.189191102981567
aF6.617950916290283
aF8.191909074783325
aF9.695504903793335
aF11.76193118095398
aF14.19304084777832
a.(lp0
F0.0
aF0.0
aF0.0
aF0.0
aF0.0
aF0.0
aF0.0
aF0.0
aF0.0
aF0.0
aF0.0
aF0.0
aF0.0
aF0.0
aF0.0
aF0.0
aF0.0
aF0.0
aF0.0
aF0.0
a.(lp0
I2533
aI2576
aI2879
aI2290
aI2892
aI2600
aI2400
aI2200
aI2900
aI2500
aI2995
aI2200
aI2200
aI2100
aI2700
aI2500
aI2200
aI2200
aI2600
aI2900
a.